; ModuleID = '34/486.c'
source_filename = "34/486.c"
target datalayout = "e-m:e-p270:32:32-p271:32:32-p272:64:64-i64:64-f80:128-n8:16:32:64-S128"
target triple = "x86_64-pc-linux-gnu"

@.str = private unnamed_addr constant [3 x i8] c"%d\00", align 1
@.str.1 = private unnamed_addr constant [9 x i8] c"%d/2=%d\0A\00", align 1
@.str.2 = private unnamed_addr constant [11 x i8] c"%d*3+1=%d\0A\00", align 1
@.str.3 = private unnamed_addr constant [5 x i8] c"End\0A\00", align 1

; Function Attrs: noinline nounwind uwtable
define dso_local i32 @main() #0 {
  %1 = alloca i32, align 4
  %2 = alloca i32, align 4
  %3 = alloca i32, align 4
  %4 = alloca [14444 x i32], align 16
  store i32 0, i32* %1, align 4
  %5 = call i32 (i8*, ...) @__isoc99_scanf(i8* getelementptr inbounds ([3 x i8], [3 x i8]* @.str, i64 0, i64 0), i32* %2)
  %6 = load i32, i32* %2, align 4
  %7 = getelementptr inbounds [14444 x i32], [14444 x i32]* %4, i64 0, i64 0
  store i32 %6, i32* %7, align 16
  store i32 0, i32* %3, align 4
  br label %8

8:                                                ; preds = %79, %0
  %9 = load i32, i32* %2, align 4
  %10 = icmp sgt i32 %9, -1
  br i1 %10, label %11, label %82

11:                                               ; preds = %8
  %12 = load i32, i32* %3, align 4
  %13 = sext i32 %12 to i64
  %14 = getelementptr inbounds [14444 x i32], [14444 x i32]* %4, i64 0, i64 %13
  %15 = load i32, i32* %14, align 4
  %16 = srem i32 %15, 2
  store i32 %16, i32* %2, align 4
  %17 = load i32, i32* %2, align 4
  %18 = icmp eq i32 %17, 0
  br i1 %18, label %19, label %39

19:                                               ; preds = %11
  %20 = load i32, i32* %3, align 4
  %21 = sext i32 %20 to i64
  %22 = getelementptr inbounds [14444 x i32], [14444 x i32]* %4, i64 0, i64 %21
  %23 = load i32, i32* %22, align 4
  %24 = sdiv i32 %23, 2
  %25 = load i32, i32* %3, align 4
  %26 = add nsw i32 %25, 1
  %27 = sext i32 %26 to i64
  %28 = getelementptr inbounds [14444 x i32], [14444 x i32]* %4, i64 0, i64 %27
  store i32 %24, i32* %28, align 4
  %29 = load i32, i32* %3, align 4
  %30 = sext i32 %29 to i64
  %31 = getelementptr inbounds [14444 x i32], [14444 x i32]* %4, i64 0, i64 %30
  %32 = load i32, i32* %31, align 4
  %33 = load i32, i32* %3, align 4
  %34 = add nsw i32 %33, 1
  %35 = sext i32 %34 to i64
  %36 = getelementptr inbounds [14444 x i32], [14444 x i32]* %4, i64 0, i64 %35
  %37 = load i32, i32* %36, align 4
  %38 = call i32 (i8*, ...) @printf(i8* getelementptr inbounds ([9 x i8], [9 x i8]* @.str.1, i64 0, i64 0), i32 %32, i32 %37)
  br label %79

39:                                               ; preds = %11
  %40 = load i32, i32* %2, align 4
  %41 = icmp eq i32 %40, 1
  br i1 %41, label %42, label %69

42:                                               ; preds = %39
  %43 = load i32, i32* %3, align 4
  %44 = sext i32 %43 to i64
  %45 = getelementptr inbounds [14444 x i32], [14444 x i32]* %4, i64 0, i64 %44
  %46 = load i32, i32* %45, align 4
  %47 = icmp ne i32 %46, 1
  br i1 %47, label %48, label %69

48:                                               ; preds = %42
  %49 = load i32, i32* %3, align 4
  %50 = sext i32 %49 to i64
  %51 = getelementptr inbounds [14444 x i32], [14444 x i32]* %4, i64 0, i64 %50
  %52 = load i32, i32* %51, align 4
  %53 = mul nsw i32 3, %52
  %54 = add nsw i32 %53, 1
  %55 = load i32, i32* %3, align 4
  %56 = add nsw i32 %55, 1
  %57 = sext i32 %56 to i64
  %58 = getelementptr inbounds [14444 x i32], [14444 x i32]* %4, i64 0, i64 %57
  store i32 %54, i32* %58, align 4
  %59 = load i32, i32* %3, align 4
  %60 = sext i32 %59 to i64
  %61 = getelementptr inbounds [14444 x i32], [14444 x i32]* %4, i64 0, i64 %60
  %62 = load i32, i32* %61, align 4
  %63 = load i32, i32* %3, align 4
  %64 = add nsw i32 %63, 1
  %65 = sext i32 %64 to i64
  %66 = getelementptr inbounds [14444 x i32], [14444 x i32]* %4, i64 0, i64 %65
  %67 = load i32, i32* %66, align 4
  %68 = call i32 (i8*, ...) @printf(i8* getelementptr inbounds ([11 x i8], [11 x i8]* @.str.2, i64 0, i64 0), i32 %62, i32 %67)
  br label %78

69:                                               ; preds = %42, %39
  %70 = load i32, i32* %3, align 4
  %71 = sext i32 %70 to i64
  %72 = getelementptr inbounds [14444 x i32], [14444 x i32]* %4, i64 0, i64 %71
  %73 = load i32, i32* %72, align 4
  %74 = icmp eq i32 %73, 1
  br i1 %74, label %75, label %77

75:                                               ; preds = %69
  %76 = call i32 (i8*, ...) @printf(i8* getelementptr inbounds ([5 x i8], [5 x i8]* @.str.3, i64 0, i64 0))
  br label %82

77:                                               ; preds = %69
  br label %78

78:                                               ; preds = %77, %48
  br label %79

79:                                               ; preds = %78, %19
  %80 = load i32, i32* %3, align 4
  %81 = add nsw i32 %80, 1
  store i32 %81, i32* %3, align 4
  br label %8

82:                                               ; preds = %75, %8
  ret i32 0
}

declare dso_local i32 @__isoc99_scanf(i8*, ...) #1

declare dso_local i32 @printf(i8*, ...) #1


!llvm.module.flags = !{!0}
!llvm.ident = !{!1}

!0 = !{i32 1, !"wchar_size", i32 4}
!1 = !{!"clang version 10.0.0-4ubuntu1 "}
