; ModuleID = 'source-C-CXX/33/486.c'
source_filename = "source-C-CXX/33/486.c"
target datalayout = "e-m:e-p270:32:32-p271:32:32-p272:64:64-i64:64-f80:128-n8:16:32:64-S128"
target triple = "x86_64-pc-linux-gnu"

@.str = private unnamed_addr constant [3 x i8] c"%d\00", align 1
@.str.1 = private unnamed_addr constant [9 x i8] c"%d/2=%d\0A\00", align 1
@.str.2 = private unnamed_addr constant [11 x i8] c"%d*3+1=%d\0A\00", align 1
@str = private unnamed_addr constant [4 x i8] c"End\00", align 1

; Function Attrs: nofree nounwind sspstrong uwtable
define dso_local i32 @main() local_unnamed_addr #0 {
  %1 = alloca i32, align 4
  %2 = alloca [14444 x i32], align 16
  %3 = bitcast i32* %1 to i8*
  call void @llvm.lifetime.start.p0i8(i64 4, i8* nonnull %3) #4
  %4 = bitcast [14444 x i32]* %2 to i8*
  call void @llvm.lifetime.start.p0i8(i64 57776, i8* nonnull %4) #4
  %5 = call i32 (i8*, ...) @__isoc99_scanf(i8* getelementptr inbounds ([3 x i8], [3 x i8]* @.str, i64 0, i64 0), i32* nonnull %1)
  %6 = load i32, i32* %1, align 4, !tbaa !5
  %7 = getelementptr inbounds [14444 x i32], [14444 x i32]* %2, i64 0, i64 0
  store i32 %6, i32* %7, align 16, !tbaa !5
  %8 = icmp sgt i32 %6, -1
  br i1 %8, label %9, label %37

9:                                                ; preds = %0, %34
  %10 = phi i32 [ %36, %34 ], [ %6, %0 ]
  %11 = phi i64 [ %31, %34 ], [ 0, %0 ]
  %12 = srem i32 %10, 2
  %13 = sdiv i32 %10, 2
  store i32 %12, i32* %1, align 4, !tbaa !5
  switch i32 %12, label %26 [
    i32 0, label %14
    i32 1, label %18
  ]

14:                                               ; preds = %9
  %15 = add nuw i64 %11, 1
  %16 = getelementptr inbounds [14444 x i32], [14444 x i32]* %2, i64 0, i64 %15
  store i32 %13, i32* %16, align 4, !tbaa !5
  %17 = call i32 (i8*, ...) @printf(i8* nonnull dereferenceable(1) getelementptr inbounds ([9 x i8], [9 x i8]* @.str.1, i64 0, i64 0), i32 %10, i32 %13)
  br label %30

18:                                               ; preds = %9
  %19 = icmp eq i32 %10, 1
  br i1 %19, label %28, label %20

20:                                               ; preds = %18
  %21 = mul nsw i32 %10, 3
  %22 = add nsw i32 %21, 1
  %23 = add nuw i64 %11, 1
  %24 = getelementptr inbounds [14444 x i32], [14444 x i32]* %2, i64 0, i64 %23
  store i32 %22, i32* %24, align 4, !tbaa !5
  %25 = call i32 (i8*, ...) @printf(i8* nonnull dereferenceable(1) getelementptr inbounds ([11 x i8], [11 x i8]* @.str.2, i64 0, i64 0), i32 %10, i32 %22)
  br label %30

26:                                               ; preds = %9
  %27 = icmp eq i32 %10, 1
  br i1 %27, label %28, label %37

28:                                               ; preds = %18, %26
  %29 = call i32 @puts(i8* nonnull dereferenceable(1) getelementptr inbounds ([4 x i8], [4 x i8]* @str, i64 0, i64 0))
  br label %37

30:                                               ; preds = %20, %14
  %31 = phi i64 [ %15, %14 ], [ %23, %20 ]
  %32 = load i32, i32* %1, align 4, !tbaa !5
  %33 = icmp sgt i32 %32, -1
  br i1 %33, label %34, label %37, !llvm.loop !9

34:                                               ; preds = %30
  %35 = getelementptr inbounds [14444 x i32], [14444 x i32]* %2, i64 0, i64 %31
  %36 = load i32, i32* %35, align 4, !tbaa !5
  br label %9

37:                                               ; preds = %30, %26, %0, %28
  call void @llvm.lifetime.end.p0i8(i64 57776, i8* nonnull %4) #4
  call void @llvm.lifetime.end.p0i8(i64 4, i8* nonnull %3) #4
  ret i32 0
}

; Function Attrs: argmemonly mustprogress nofree nosync nounwind willreturn
declare void @llvm.lifetime.start.p0i8(i64 immarg, i8* nocapture) #1

; Function Attrs: nofree nounwind
declare noundef i32 @__isoc99_scanf(i8* nocapture noundef readonly, ...) local_unnamed_addr #2

; Function Attrs: nofree nounwind
declare noundef i32 @printf(i8* nocapture noundef readonly, ...) local_unnamed_addr #2

; Function Attrs: argmemonly mustprogress nofree nosync nounwind willreturn
declare void @llvm.lifetime.end.p0i8(i64 immarg, i8* nocapture) #1

; Function Attrs: nofree nounwind
declare noundef i32 @puts(i8* nocapture noundef readonly) local_unnamed_addr #3


!llvm.module.flags = !{!0, !1, !2, !3}
!llvm.ident = !{!4}

!0 = !{i32 1, !"wchar_size", i32 4}
!1 = !{i32 7, !"PIC Level", i32 2}
!2 = !{i32 7, !"PIE Level", i32 2}
!3 = !{i32 7, !"uwtable", i32 1}
!4 = !{!"clang version 13.0.0"}
!5 = !{!6, !6, i64 0}
!6 = !{!"int", !7, i64 0}
!7 = !{!"omnipotent char", !8, i64 0}
!8 = !{!"Simple C/C++ TBAA"}
!9 = distinct !{!9, !10}
!10 = !{!"llvm.loop.mustprogress"}
